target datalayout = "e-m:e-p270:32:32-p271:32:32-p272:64:64-i64:64-i128:128-f80:128-n8:16:32:64-S128"
target triple = "x86_64-pc-linux-gnu"

%struct._zend_compiler_globals = type { %struct._zend_stack, ptr, ptr, i32, ptr, ptr, ptr, ptr, i8, i8, i8, i8, i8, %struct._zend_llist, ptr, i8, i8, i8, i8, ptr, i32, i32, %struct._zend_oparray_context, %struct._zend_file_context, ptr, %struct._zend_array, ptr, i64, i8, i8, i8, ptr, ptr, %struct._zend_stack, ptr, i32, ptr, ptr, i64, i64, ptr, ptr, ptr, ptr, i32, %struct._zend_stack }
%struct._zend_llist = type { ptr, ptr, i64, i64, ptr, i8, ptr }
%struct._zend_oparray_context = type { i32, i32, i32, i32, i32, i32, i32, ptr, ptr, i8 }
%struct._zend_file_context = type { %struct._zend_declarables, ptr, i8, i8, ptr, ptr, ptr, %struct._zend_array }
%struct._zend_declarables = type { i64 }
%struct._zend_array = type { %struct._zend_refcounted_h, %union.anon.0, i32, %union.anon.1, i32, i32, i32, i32, i64, ptr }
%struct._zend_refcounted_h = type { i32, %union.anon }
%union.anon = type { i32 }
%union.anon.0 = type { i32 }
%union.anon.1 = type { ptr }
%struct._zend_stack = type { i32, i32, i32, ptr }
%struct._zend_php_scanner_globals = type { ptr, ptr, i32, ptr, ptr, ptr, ptr, ptr, i32, %struct._zend_stack, %struct._zend_ptr_stack, %struct._zend_stack, i8, i32, i8, ptr, i64, ptr, i64, ptr, ptr, ptr, i32, ptr, ptr }
%struct._zend_ptr_stack = type { i32, i32, ptr, ptr, i8 }
%struct._zend_executor_globals = type { %struct._zval_struct, %struct._zval_struct, [32 x ptr], ptr, ptr, %struct._zend_array, %struct._zend_array, ptr, i32, i32, ptr, ptr, ptr, ptr, ptr, ptr, i64, ptr, ptr, i32, i32, i64, i32, i32, i32, i8, i8, %struct.zend_atomic_bool_s, %struct.zend_atomic_bool_s, ptr, i64, ptr, ptr, %struct._zend_array, %struct._zend_array, i32, i8, %struct._zval_struct, %struct._zval_struct, %struct._zend_stack, %struct._zend_stack, %struct._zend_stack, ptr, i32, i32, i64, ptr, ptr, ptr, %struct._zend_objects_store, ptr, ptr, ptr, [3 x %struct._zend_op], ptr, i8, i8, i64, i32, i32, ptr, [16 x %struct._HashTableIterator], ptr, %union._zend_function, %struct._zend_op, %struct._zend_array, i64, %struct.zend_get_gc_buffer, ptr, ptr, ptr, i64, i8, i32, ptr, ptr, i64, %struct._zend_call_stack, i64, i64, [6 x ptr] }
%struct.zend_atomic_bool_s = type { i8 }
%struct._zval_struct = type { %union._zend_value, %union.anon.3, %union.anon.6 }
%union._zend_value = type { i64 }
%union.anon.3 = type { i32 }
%union.anon.6 = type { i32 }
%struct._zend_objects_store = type { ptr, i32, i32, i32 }
%struct._HashTableIterator = type { ptr, i32, i32 }
%union._zend_function = type { %struct._zend_op_array }
%struct._zend_op_array = type { i8, [3 x i8], i32, ptr, ptr, ptr, i32, i32, ptr, ptr, ptr, ptr, i32, i32, i32, i32, ptr, ptr, ptr, ptr, ptr, i32, i32, ptr, ptr, ptr, i32, i32, i32, i32, ptr, ptr, [6 x ptr] }
%struct._zend_op = type { ptr, %union._znode_op, %union._znode_op, %union._znode_op, i32, i32, i8, i8, i8, i8 }
%union._znode_op = type { i32 }
%struct.zend_get_gc_buffer = type { ptr, ptr, ptr }
%struct._zend_call_stack = type { ptr, i64 }
%struct._zend_file_handle = type { %union.anon.7, ptr, ptr, i8, i8, i8, ptr, i64 }
%union.anon.7 = type { %struct._zend_stream }
%struct._zend_stream = type { ptr, i32, ptr, ptr, ptr }

@compiler_globals = external global %struct._zend_compiler_globals, align 8
@language_scanner_globals = global %struct._zend_php_scanner_globals zeroinitializer, align 8
@executor_globals = external global %struct._zend_executor_globals, align 8
@.str.2 = private unnamed_addr constant [86 x i8] c"Could not convert the script from the detected encoding \22%s\22 to a compatible encoding\00", align 1
@.str.3 = private unnamed_addr constant [26 x i8] c"zend_stream_mmap() failed\00", align 1

; Function Attrs: nounwind uwtable
define internal void @yy_scan_buffer(ptr noundef %0, i64 noundef %1) #0 {
  %3 = alloca ptr, align 8
  %4 = alloca i64, align 8
  store ptr %0, ptr %3, align 8
  store i64 %1, ptr %4, align 8
  %5 = load ptr, ptr %3, align 8
  store ptr %5, ptr getelementptr inbounds (%struct._zend_php_scanner_globals, ptr @language_scanner_globals, i32 0, i32 5), align 8
  %6 = load ptr, ptr getelementptr inbounds (%struct._zend_php_scanner_globals, ptr @language_scanner_globals, i32 0, i32 5), align 8
  %7 = load i64, ptr %4, align 8
  %8 = getelementptr inbounds i8, ptr %6, i64 %7
  store ptr %8, ptr getelementptr inbounds (%struct._zend_php_scanner_globals, ptr @language_scanner_globals, i32 0, i32 7), align 8
  %9 = load ptr, ptr getelementptr inbounds (%struct._zend_php_scanner_globals, ptr @language_scanner_globals, i32 0, i32 3), align 8
  %10 = icmp ne ptr %9, null
  br i1 %10, label %13, label %11

11:                                               ; preds = %2
  %12 = load ptr, ptr getelementptr inbounds (%struct._zend_php_scanner_globals, ptr @language_scanner_globals, i32 0, i32 5), align 8
  store ptr %12, ptr getelementptr inbounds (%struct._zend_php_scanner_globals, ptr @language_scanner_globals, i32 0, i32 3), align 8
  br label %13

13:                                               ; preds = %11, %2
  ret void
}

; Function Attrs: nounwind uwtable
define i32 @open_file_for_scanning(ptr noundef %0) #0 {
  %2 = alloca ptr, align 8
  %3 = alloca ptr, align 8
  %4 = alloca ptr, align 8
  %5 = alloca ptr, align 8
  %6 = alloca i32, align 4
  %7 = alloca i32, align 4
  %8 = alloca i32, align 4
  %9 = alloca i32, align 4
  %10 = alloca ptr, align 8
  %11 = alloca ptr, align 8
  %12 = alloca ptr, align 8
  %13 = alloca i8, align 1
  %14 = alloca ptr, align 8
  %15 = alloca i8, align 1
  %16 = alloca i32, align 4
  %17 = alloca ptr, align 8
  %18 = alloca ptr, align 8
  %19 = alloca i64, align 8
  %20 = alloca ptr, align 8
  store ptr %0, ptr %17, align 8
  %21 = load ptr, ptr %17, align 8
  %22 = call i32 @zend_stream_fixup(ptr noundef %21, ptr noundef %18, ptr noundef %19)
  %23 = icmp eq i32 %22, -1
  br i1 %23, label %24, label %28

24:                                               ; preds = %1
  %25 = load ptr, ptr %17, align 8
  call void @zend_llist_add_element(ptr noundef getelementptr inbounds (%struct._zend_compiler_globals, ptr @compiler_globals, i32 0, i32 13), ptr noundef %25)
  %26 = load ptr, ptr %17, align 8
  %27 = getelementptr inbounds %struct._zend_file_handle, ptr %26, i32 0, i32 5
  store i8 1, ptr %27, align 2
  store i32 -1, ptr %16, align 4
  br label %176

28:                                               ; preds = %1
  %29 = load ptr, ptr getelementptr inbounds (%struct._zend_executor_globals, ptr @executor_globals, i32 0, i32 50), align 8
  %30 = icmp ne ptr %29, null
  br i1 %30, label %32, label %31

31:                                               ; preds = %28
  br label %32

32:                                               ; preds = %31, %28
  %33 = phi i1 [ false, %28 ], [ true, %31 ]
  call void @llvm.assume(i1 %33)
  %34 = load ptr, ptr %17, align 8
  call void @zend_llist_add_element(ptr noundef getelementptr inbounds (%struct._zend_compiler_globals, ptr @compiler_globals, i32 0, i32 13), ptr noundef %34)
  %35 = load ptr, ptr %17, align 8
  %36 = getelementptr inbounds %struct._zend_file_handle, ptr %35, i32 0, i32 5
  store i8 1, ptr %36, align 2
  %37 = load ptr, ptr %17, align 8
  store ptr %37, ptr @language_scanner_globals, align 8
  store ptr null, ptr getelementptr inbounds (%struct._zend_php_scanner_globals, ptr @language_scanner_globals, i32 0, i32 3), align 8
  %38 = load i64, ptr %19, align 8
  %39 = icmp ne i64 %38, -1
  br i1 %39, label %40, label %66

40:                                               ; preds = %32
  %41 = load i8, ptr getelementptr inbounds (%struct._zend_compiler_globals, ptr @compiler_globals, i32 0, i32 28), align 8
  %42 = trunc i8 %41 to i1
  br i1 %42, label %43, label %62

43:                                               ; preds = %40
  %44 = load ptr, ptr %18, align 8
  store ptr %44, ptr getelementptr inbounds (%struct._zend_php_scanner_globals, ptr @language_scanner_globals, i32 0, i32 15), align 8
  %45 = load i64, ptr %19, align 8
  store i64 %45, ptr getelementptr inbounds (%struct._zend_php_scanner_globals, ptr @language_scanner_globals, i32 0, i32 16), align 8
  store ptr null, ptr getelementptr inbounds (%struct._zend_php_scanner_globals, ptr @language_scanner_globals, i32 0, i32 17), align 8
  %46 = call i32 @zend_multibyte_set_filter(ptr noundef null)
  %47 = load ptr, ptr getelementptr inbounds (%struct._zend_php_scanner_globals, ptr @language_scanner_globals, i32 0, i32 19), align 8
  %48 = icmp ne ptr %47, null
  br i1 %48, label %49, label %61

49:                                               ; preds = %43
  %50 = load ptr, ptr getelementptr inbounds (%struct._zend_php_scanner_globals, ptr @language_scanner_globals, i32 0, i32 19), align 8
  %51 = load ptr, ptr getelementptr inbounds (%struct._zend_php_scanner_globals, ptr @language_scanner_globals, i32 0, i32 15), align 8
  %52 = load i64, ptr getelementptr inbounds (%struct._zend_php_scanner_globals, ptr @language_scanner_globals, i32 0, i32 16), align 8
  %53 = call i64 %50(ptr noundef getelementptr inbounds (%struct._zend_php_scanner_globals, ptr @language_scanner_globals, i32 0, i32 17), ptr noundef getelementptr inbounds (%struct._zend_php_scanner_globals, ptr @language_scanner_globals, i32 0, i32 18), ptr noundef %51, i64 noundef %52)
  %54 = icmp eq i64 -1, %53
  br i1 %54, label %55, label %58

55:                                               ; preds = %49
  %56 = load ptr, ptr getelementptr inbounds (%struct._zend_php_scanner_globals, ptr @language_scanner_globals, i32 0, i32 21), align 8
  %57 = call ptr @zend_multibyte_get_encoding_name(ptr noundef %56)
  call void (i32, ptr, ...) @zend_error_noreturn(i32 noundef 64, ptr noundef @.str.2, ptr noundef %57) #14
  unreachable

58:                                               ; preds = %49
  %59 = load ptr, ptr getelementptr inbounds (%struct._zend_php_scanner_globals, ptr @language_scanner_globals, i32 0, i32 17), align 8
  store ptr %59, ptr %18, align 8
  %60 = load i64, ptr getelementptr inbounds (%struct._zend_php_scanner_globals, ptr @language_scanner_globals, i32 0, i32 18), align 8
  store i64 %60, ptr %19, align 8
  br label %61

61:                                               ; preds = %58, %43
  br label %62

62:                                               ; preds = %61, %40
  %63 = load ptr, ptr %18, align 8
  store ptr %63, ptr getelementptr inbounds (%struct._zend_php_scanner_globals, ptr @language_scanner_globals, i32 0, i32 3), align 8
  %64 = load ptr, ptr %18, align 8
  %65 = load i64, ptr %19, align 8
  call void @yy_scan_buffer(ptr noundef %64, i64 noundef %65)
  br label %67

66:                                               ; preds = %32
  call void (i32, ptr, ...) @zend_error_noreturn(i32 noundef 64, ptr noundef @.str.3) #14
  unreachable

67:                                               ; preds = %62
  %68 = load i8, ptr getelementptr inbounds (%struct._zend_compiler_globals, ptr @compiler_globals, i32 0, i32 15), align 8
  %69 = trunc i8 %68 to i1
  br i1 %69, label %70, label %71

70:                                               ; preds = %67
  store i32 7, ptr getelementptr inbounds (%struct._zend_php_scanner_globals, ptr @language_scanner_globals, i32 0, i32 8), align 8
  br label %72

71:                                               ; preds = %67
  store i32 8, ptr getelementptr inbounds (%struct._zend_php_scanner_globals, ptr @language_scanner_globals, i32 0, i32 8), align 8
  br label %72

72:                                               ; preds = %71, %70
  %73 = load ptr, ptr %17, align 8
  %74 = getelementptr inbounds %struct._zend_file_handle, ptr %73, i32 0, i32 2
  %75 = load ptr, ptr %74, align 8
  %76 = icmp ne ptr %75, null
  br i1 %76, label %77, label %95

77:                                               ; preds = %72
  %78 = load ptr, ptr %17, align 8
  %79 = getelementptr inbounds %struct._zend_file_handle, ptr %78, i32 0, i32 2
  %80 = load ptr, ptr %79, align 8
  store ptr %80, ptr %10, align 8
  %81 = load ptr, ptr %10, align 8
  %82 = getelementptr inbounds %struct._zend_refcounted_h, ptr %81, i32 0, i32 1
  %83 = load i32, ptr %82, align 4
  store i32 %83, ptr %9, align 4
  %84 = load i32, ptr %9, align 4
  %85 = and i32 %84, 1008
  %86 = and i32 %85, 64
  %87 = icmp ne i32 %86, 0
  br i1 %87, label %93, label %88

88:                                               ; preds = %77
  %89 = load ptr, ptr %10, align 8
  store ptr %89, ptr %5, align 8
  %90 = load ptr, ptr %5, align 8
  %91 = load i32, ptr %90, align 4
  %92 = add i32 %91, 1
  store i32 %92, ptr %90, align 4
  br label %93

93:                                               ; preds = %88, %77
  %94 = load ptr, ptr %10, align 8
  store ptr %94, ptr %20, align 8
  br label %113

95:                                               ; preds = %72
  %96 = load ptr, ptr %17, align 8
  %97 = getelementptr inbounds %struct._zend_file_handle, ptr %96, i32 0, i32 1
  %98 = load ptr, ptr %97, align 8
  store ptr %98, ptr %11, align 8
  %99 = load ptr, ptr %11, align 8
  %100 = getelementptr inbounds %struct._zend_refcounted_h, ptr %99, i32 0, i32 1
  %101 = load i32, ptr %100, align 4
  store i32 %101, ptr %8, align 4
  %102 = load i32, ptr %8, align 4
  %103 = and i32 %102, 1008
  %104 = and i32 %103, 64
  %105 = icmp ne i32 %104, 0
  br i1 %105, label %111, label %106

106:                                              ; preds = %95
  %107 = load ptr, ptr %11, align 8
  store ptr %107, ptr %4, align 8
  %108 = load ptr, ptr %4, align 8
  %109 = load i32, ptr %108, align 4
  %110 = add i32 %109, 1
  store i32 %110, ptr %108, align 4
  br label %111

111:                                              ; preds = %106, %95
  %112 = load ptr, ptr %11, align 8
  store ptr %112, ptr %20, align 8
  br label %113

113:                                              ; preds = %111, %93
  %114 = load ptr, ptr %20, align 8
  %115 = call ptr @zend_set_compiled_filename(ptr noundef %114)
  %116 = load ptr, ptr %20, align 8
  store ptr %116, ptr %12, align 8
  store i8 0, ptr %13, align 1
  %117 = load ptr, ptr %12, align 8
  %118 = getelementptr inbounds %struct._zend_refcounted_h, ptr %117, i32 0, i32 1
  %119 = load i32, ptr %118, align 4
  store i32 %119, ptr %7, align 4
  %120 = load i32, ptr %7, align 4
  %121 = and i32 %120, 1008
  %122 = and i32 %121, 64
  %123 = icmp ne i32 %122, 0
  br i1 %123, label %142, label %124

124:                                              ; preds = %113
  %125 = load ptr, ptr %12, align 8
  store ptr %125, ptr %3, align 8
  %126 = load ptr, ptr %3, align 8
  %127 = load i32, ptr %126, align 4
  %128 = icmp ugt i32 %127, 0
  call void @llvm.assume(i1 %128)
  %129 = load ptr, ptr %3, align 8
  %130 = load i32, ptr %129, align 4
  %131 = add i32 %130, -1
  store i32 %131, ptr %129, align 4
  %132 = icmp eq i32 %131, 0
  br i1 %132, label %133, label %141

133:                                              ; preds = %124
  %134 = load i8, ptr %13, align 1
  %135 = trunc i8 %134 to i1
  br i1 %135, label %136, label %138

136:                                              ; preds = %133
  %137 = load ptr, ptr %12, align 8
  call void @free(ptr noundef %137) #12
  br label %140

138:                                              ; preds = %133
  %139 = load ptr, ptr %12, align 8
  call void @_efree(ptr noundef %139) #12
  br label %140

140:                                              ; preds = %138, %136
  br label %141

141:                                              ; preds = %140, %124
  br label %142

142:                                              ; preds = %141, %113
  br label %143

143:                                              ; preds = %142
  %144 = load ptr, ptr getelementptr inbounds (%struct._zend_compiler_globals, ptr @compiler_globals, i32 0, i32 19), align 8
  %145 = icmp ne ptr %144, null
  br i1 %145, label %146, label %174

146:                                              ; preds = %143
  %147 = load ptr, ptr getelementptr inbounds (%struct._zend_compiler_globals, ptr @compiler_globals, i32 0, i32 19), align 8
  store ptr %147, ptr %14, align 8
  store i8 0, ptr %15, align 1
  %148 = load ptr, ptr %14, align 8
  %149 = getelementptr inbounds %struct._zend_refcounted_h, ptr %148, i32 0, i32 1
  %150 = load i32, ptr %149, align 4
  store i32 %150, ptr %6, align 4
  %151 = load i32, ptr %6, align 4
  %152 = and i32 %151, 1008
  %153 = and i32 %152, 64
  %154 = icmp ne i32 %153, 0
  br i1 %154, label %173, label %155

155:                                              ; preds = %146
  %156 = load ptr, ptr %14, align 8
  store ptr %156, ptr %2, align 8
  %157 = load ptr, ptr %2, align 8
  %158 = load i32, ptr %157, align 4
  %159 = icmp ugt i32 %158, 0
  call void @llvm.assume(i1 %159)
  %160 = load ptr, ptr %2, align 8
  %161 = load i32, ptr %160, align 4
  %162 = add i32 %161, -1
  store i32 %162, ptr %160, align 4
  %163 = icmp eq i32 %162, 0
  br i1 %163, label %164, label %172

164:                                              ; preds = %155
  %165 = load i8, ptr %15, align 1
  %166 = trunc i8 %165 to i1
  br i1 %166, label %167, label %169

167:                                              ; preds = %164
  %168 = load ptr, ptr %14, align 8
  call void @free(ptr noundef %168) #12
  br label %171

169:                                              ; preds = %164
  %170 = load ptr, ptr %14, align 8
  call void @_efree(ptr noundef %170) #12
  br label %171

171:                                              ; preds = %169, %167
  br label %172

172:                                              ; preds = %171, %155
  br label %173

173:                                              ; preds = %172, %146
  store ptr null, ptr getelementptr inbounds (%struct._zend_compiler_globals, ptr @compiler_globals, i32 0, i32 19), align 8
  br label %174

174:                                              ; preds = %173, %143
  br label %175

175:                                              ; preds = %174
  store i32 1, ptr getelementptr inbounds (%struct._zend_compiler_globals, ptr @compiler_globals, i32 0, i32 3), align 8
  store i8 0, ptr getelementptr inbounds (%struct._zend_compiler_globals, ptr @compiler_globals, i32 0, i32 16), align 1
  store i32 0, ptr %16, align 4
  br label %176

176:                                              ; preds = %175, %24
  %177 = load i32, ptr %16, align 4
  ret i32 %177
}