; Function Attrs: nounwind uwtable
define noundef i32 @open_file_for_scanning(ptr noundef %0) local_unnamed_addr #0 {
  %2 = alloca ptr, align 8
  %3 = alloca i64, align 8
  %4 = call i32 @zend_stream_fixup(ptr noundef %0, ptr noundef nonnull %2, ptr noundef nonnull %3) #16
  %5 = icmp eq i32 %4, -1
  br i1 %5, label %6, label %8

6:                                                ; preds = %1
  call void @zend_llist_add_element(ptr noundef nonnull getelementptr inbounds (%struct._zend_compiler_globals, ptr @compiler_globals, i64 0, i32 13), ptr noundef %0) #16
  %7 = getelementptr inbounds i8, ptr %0, i64 58
  store i8 1, ptr %7, align 2
  br label %77

8:                                                ; preds = %1
  %9 = load ptr, ptr getelementptr inbounds (%struct._zend_executor_globals, ptr @executor_globals, i64 0, i32 50), align 8
  %.not = icmp eq ptr %9, null
  call void @llvm.assume(i1 %.not)
  call void @zend_llist_add_element(ptr noundef nonnull getelementptr inbounds (%struct._zend_compiler_globals, ptr @compiler_globals, i64 0, i32 13), ptr noundef %0) #16
  %10 = getelementptr inbounds i8, ptr %0, i64 58
  store i8 1, ptr %10, align 2
  store ptr %0, ptr @language_scanner_globals, align 8
  store ptr null, ptr getelementptr inbounds (%struct._zend_php_scanner_globals, ptr @language_scanner_globals, i64 0, i32 3), align 8
  %11 = load i64, ptr %3, align 8
  %.not41 = icmp eq i64 %11, -1
  br i1 %.not41, label %39, label %12

12:                                               ; preds = %8
  %13 = load i8, ptr getelementptr inbounds (%struct._zend_compiler_globals, ptr @compiler_globals, i64 0, i32 28), align 8
  %14 = and i8 %13, 1
  %.not42 = icmp eq i8 %14, 0
  br i1 %.not42, label %thread-pre-split, label %15

15:                                               ; preds = %12
  %16 = load ptr, ptr %2, align 8
  store ptr %16, ptr getelementptr inbounds (%struct._zend_php_scanner_globals, ptr @language_scanner_globals, i64 0, i32 15), align 8
  store i64 %11, ptr getelementptr inbounds (%struct._zend_php_scanner_globals, ptr @language_scanner_globals, i64 0, i32 16), align 8
  store ptr null, ptr getelementptr inbounds (%struct._zend_php_scanner_globals, ptr @language_scanner_globals, i64 0, i32 17), align 8
  %17 = call i32 @zend_multibyte_set_filter(ptr noundef null), !range !4
  %18 = load ptr, ptr getelementptr inbounds (%struct._zend_php_scanner_globals, ptr @language_scanner_globals, i64 0, i32 19), align 8
  %.not43 = icmp eq ptr %18, null
  br i1 %.not43, label %.thread-pre-split_crit_edge, label %19

.thread-pre-split_crit_edge:                      ; preds = %15
  %.pre.pre = load i64, ptr %3, align 8
  br label %thread-pre-split

19:                                               ; preds = %15
  %20 = load ptr, ptr getelementptr inbounds (%struct._zend_php_scanner_globals, ptr @language_scanner_globals, i64 0, i32 15), align 8
  %21 = load i64, ptr getelementptr inbounds (%struct._zend_php_scanner_globals, ptr @language_scanner_globals, i64 0, i32 16), align 8
  %22 = call i64 %18(ptr noundef nonnull getelementptr inbounds (%struct._zend_php_scanner_globals, ptr @language_scanner_globals, i64 0, i32 17), ptr noundef nonnull getelementptr inbounds (%struct._zend_php_scanner_globals, ptr @language_scanner_globals, i64 0, i32 18), ptr noundef %20, i64 noundef %21) #16
  %23 = icmp eq i64 %22, -1
  br i1 %23, label %24, label %27

24:                                               ; preds = %19
  %25 = load ptr, ptr getelementptr inbounds (%struct._zend_php_scanner_globals, ptr @language_scanner_globals, i64 0, i32 21), align 8
  %26 = call ptr @zend_multibyte_get_encoding_name(ptr noundef %25) #16
  call void (i32, ptr, ...) @zend_error_noreturn(i32 noundef 64, ptr noundef nonnull @.str.2, ptr noundef %26) #19
  unreachable

27:                                               ; preds = %19
  %28 = load ptr, ptr getelementptr inbounds (%struct._zend_php_scanner_globals, ptr @language_scanner_globals, i64 0, i32 17), align 8
  store ptr %28, ptr %2, align 8
  %29 = load i64, ptr getelementptr inbounds (%struct._zend_php_scanner_globals, ptr @language_scanner_globals, i64 0, i32 18), align 8
  store i64 %29, ptr %3, align 8
  br label %30

thread-pre-split:                                 ; preds = %.thread-pre-split_crit_edge, %12
  %.pre = phi i64 [ %.pre.pre, %.thread-pre-split_crit_edge ], [ %11, %12 ]
  %.pr = load ptr, ptr %2, align 8
  br label %30

30:                                               ; preds = %thread-pre-split, %27
  %31 = phi i64 [ %.pre, %thread-pre-split ], [ %29, %27 ]
  %32 = phi ptr [ %.pr, %thread-pre-split ], [ %28, %27 ]
  store ptr %32, ptr getelementptr inbounds (%struct._zend_php_scanner_globals, ptr @language_scanner_globals, i64 0, i32 3), align 8
  store ptr %32, ptr getelementptr inbounds (%struct._zend_php_scanner_globals, ptr @language_scanner_globals, i64 0, i32 5), align 8
  %33 = getelementptr inbounds i8, ptr %32, i64 %31
  store ptr %33, ptr getelementptr inbounds (%struct._zend_php_scanner_globals, ptr @language_scanner_globals, i64 0, i32 7), align 8
  %.not.i = icmp eq ptr %32, null
  br i1 %.not.i, label %34, label %yy_scan_buffer.exit

34:                                               ; preds = %30
  store ptr null, ptr getelementptr inbounds (%struct._zend_php_scanner_globals, ptr @language_scanner_globals, i64 0, i32 3), align 8
  br label %yy_scan_buffer.exit

yy_scan_buffer.exit:                              ; preds = %30, %34
  %35 = load i8, ptr getelementptr inbounds (%struct._zend_compiler_globals, ptr @compiler_globals, i64 0, i32 15), align 8
  %36 = and i8 %35, 1
  %.not44 = icmp eq i8 %36, 0
  %. = select i1 %.not44, i32 8, i32 7
  store i32 %., ptr getelementptr inbounds (%struct._zend_php_scanner_globals, ptr @language_scanner_globals, i64 0, i32 8), align 8
  %37 = getelementptr inbounds i8, ptr %0, i64 48
  %38 = load ptr, ptr %37, align 8
  %.not45 = icmp eq ptr %38, null
  br i1 %.not45, label %44, label %40

39:                                               ; preds = %8
  call void (i32, ptr, ...) @zend_error_noreturn(i32 noundef 64, ptr noundef nonnull @.str.3) #19
  unreachable

40:                                               ; preds = %yy_scan_buffer.exit
  %41 = getelementptr inbounds i8, ptr %38, i64 4
  %42 = load i32, ptr %41, align 4
  %43 = and i32 %42, 64
  %.not47 = icmp eq i32 %43, 0
  br i1 %.not47, label %.sink.split, label %52

44:                                               ; preds = %yy_scan_buffer.exit
  %45 = getelementptr inbounds i8, ptr %0, i64 40
  %46 = load ptr, ptr %45, align 8
  %47 = getelementptr inbounds i8, ptr %46, i64 4
  %48 = load i32, ptr %47, align 4
  %49 = and i32 %48, 64
  %.not46 = icmp eq i32 %49, 0
  br i1 %.not46, label %.sink.split, label %52

.sink.split:                                      ; preds = %44, %40
  %.sink = phi ptr [ %38, %40 ], [ %46, %44 ]
  %50 = load i32, ptr %.sink, align 4
  %51 = add i32 %50, 1
  store i32 %51, ptr %.sink, align 4
  br label %52

52:                                               ; preds = %.sink.split, %44, %40
  %.0 = phi ptr [ %38, %40 ], [ %46, %44 ], [ %.sink, %.sink.split ]
  %53 = call ptr @zend_set_compiled_filename(ptr noundef nonnull %.0) #16
  %54 = getelementptr inbounds i8, ptr %.0, i64 4
  %55 = load i32, ptr %54, align 4
  %56 = and i32 %55, 64
  %.not48 = icmp eq i32 %56, 0
  br i1 %.not48, label %57, label %63

57:                                               ; preds = %52
  %58 = load i32, ptr %.0, align 4
  %59 = icmp ne i32 %58, 0
  call void @llvm.assume(i1 %59)
  %60 = add i32 %58, -1
  store i32 %60, ptr %.0, align 4
  %61 = icmp eq i32 %60, 0
  br i1 %61, label %62, label %63

62:                                               ; preds = %57
  call void @_efree(ptr noundef nonnull %.0) #16
  br label %63

63:                                               ; preds = %52, %62, %57
  %64 = load ptr, ptr getelementptr inbounds (%struct._zend_compiler_globals, ptr @compiler_globals, i64 0, i32 19), align 8
  %.not49 = icmp eq ptr %64, null
  br i1 %.not49, label %76, label %65

65:                                               ; preds = %63
  %66 = getelementptr inbounds i8, ptr %64, i64 4
  %67 = load i32, ptr %66, align 4
  %68 = and i32 %67, 64
  %.not50 = icmp eq i32 %68, 0
  br i1 %.not50, label %69, label %75

69:                                               ; preds = %65
  %70 = load i32, ptr %64, align 4
  %71 = icmp ne i32 %70, 0
  call void @llvm.assume(i1 %71)
  %72 = add i32 %70, -1
  store i32 %72, ptr %64, align 4
  %73 = icmp eq i32 %72, 0
  br i1 %73, label %74, label %75

74:                                               ; preds = %69
  call void @_efree(ptr noundef nonnull %64) #16
  br label %75

75:                                               ; preds = %69, %74, %65
  store ptr null, ptr getelementptr inbounds (%struct._zend_compiler_globals, ptr @compiler_globals, i64 0, i32 19), align 8
  br label %76

76:                                               ; preds = %63, %75
  store i32 1, ptr getelementptr inbounds (%struct._zend_compiler_globals, ptr @compiler_globals, i64 0, i32 3), align 8
  store i8 0, ptr getelementptr inbounds (%struct._zend_compiler_globals, ptr @compiler_globals, i64 0, i32 16), align 1
  br label %77

77:                                               ; preds = %76, %6
  %.037 = phi i32 [ -1, %6 ], [ 0, %76 ]
  ret i32 %.037
}